; Function Attrs: nounwind uwtable
define internal ptr @getargs_z(ptr readnone captures(none) %0, ptr noundef %1) #0 {
  %3 = alloca ptr, align 8
  call void @llvm.lifetime.start.p0(i64 8, ptr nonnull %3) #7
  %4 = call i32 (ptr, ptr, ...) @PyArg_ParseTuple(ptr noundef %1, ptr noundef nonnull @.str.106, ptr noundef nonnull %3) #7
  %.not = icmp eq i32 %4, 0
  br i1 %.not, label %9, label %5

5:                                                ; preds = %2
  %6 = load ptr, ptr %3, align 8, !tbaa !17
  %.not3 = icmp eq ptr %6, null
  br i1 %.not3, label %9, label %7

7:                                                ; preds = %5
  %8 = call ptr @PyBytes_FromString(ptr noundef nonnull %6) #7
  br label %9

9:                                                ; preds = %5, %2, %7
  %.0 = phi ptr [ %8, %7 ], [ null, %2 ], [ @_Py_NoneStruct, %5 ]
  call void @llvm.lifetime.end.p0(i64 8, ptr nonnull %3) #7
  ret ptr %.0
}